; Function Attrs: nounwind uwtable
define internal range(i32 0, 2) i32 @test_verify_fails_for_future_sct() #0 {
  %1 = tail call fastcc ptr @set_up(ptr noundef nonnull @.str.9)
  %2 = icmp eq ptr %1, null
  br i1 %2, label %17, label %3

3:                                                ; preds = %0
  %4 = getelementptr inbounds nuw i8, ptr %1, i64 8
  store i64 1365094800000, ptr %4, align 8, !tbaa !24
  %5 = load ptr, ptr @certs_dir, align 8, !tbaa !4
  %6 = getelementptr inbounds nuw i8, ptr %1, i64 24
  store ptr %5, ptr %6, align 8, !tbaa !9
  %7 = getelementptr inbounds nuw i8, ptr %1, i64 32
  store ptr @.str.45, ptr %7, align 8, !tbaa !15
  %8 = getelementptr inbounds nuw i8, ptr %1, i64 40
  store ptr @.str.46, ptr %8, align 8, !tbaa !16
  %9 = getelementptr inbounds nuw i8, ptr %1, i64 48
  store i32 1, ptr %9, align 8, !tbaa !17
  %10 = getelementptr inbounds nuw i8, ptr %1, i64 52
  store i32 0, ptr %10, align 4, !tbaa !22
  %11 = getelementptr inbounds nuw i8, ptr %1, i64 96
  store i32 1, ptr %11, align 8, !tbaa !23
  %12 = tail call fastcc i32 @execute_cert_test(ptr noundef %1)
  %13 = getelementptr inbounds nuw i8, ptr %1, i64 16
  %14 = load ptr, ptr %13, align 8, !tbaa !18
  tail call void @CTLOG_STORE_free(ptr noundef %14) #8
  %15 = getelementptr inbounds nuw i8, ptr %1, i64 72
  %16 = load ptr, ptr %15, align 8, !tbaa !19
  tail call void @SCT_LIST_free(ptr noundef %16) #8
  tail call void @CRYPTO_free(ptr noundef nonnull %1, ptr noundef nonnull @.str.16, i32 noundef 88) #8
  br label %17

17:                                               ; preds = %0, %3
  %.012 = phi i32 [ %12, %3 ], [ 0, %0 ]
  ret i32 %.012
}